target datalayout = "e-m:e-p270:32:32-p271:32:32-p272:64:64-i64:64-i128:128-f80:128-n8:16:32:64-S128"
target triple = "x86_64-pc-linux-gnu"

%struct.rb_data_type_struct = type { ptr, %struct.anon, ptr, ptr, i64 }
%struct.anon = type { ptr, ptr, ptr, ptr, [1 x ptr] }
%struct.anon.0 = type { i8, i8 }
%struct.rb_random_mt_t = type { %struct.rb_random_struct, %struct.MT }
%struct.rb_random_struct = type { i64 }
%struct.MT = type { [624 x i32], ptr, i32 }
%struct.rb_random_interface_t = type { i64, %struct.anon.0, i16, ptr, ptr, ptr, ptr, ptr }
%struct.RBasic = type { i64, i64 }
%struct.RTypedData = type { %struct.RBasic, ptr, i64, ptr }
%struct.RString = type { %struct.RBasic, i64, %union.anon.16 }
%union.anon.16 = type { %struct.anon.17 }
%struct.anon.17 = type { ptr, %union.anon.18 }
%union.anon.18 = type { i64 }
%struct.anon.19 = type { [1 x i8] }

@default_rand_key = internal global ptr null, align 8
@random_mt_if = internal constant { i64, %struct.anon.0, i16, [4 x i8], ptr, ptr, ptr, ptr, ptr } { i64 128, %struct.anon.0 { i8 1, i8 0 }, i16 0, [4 x i8] zeroinitializer, ptr @rand_mt_init, ptr @rand_mt_init_int32, ptr @rand_mt_get_int32, ptr @rand_mt_get_bytes, ptr null }, align 8

; Function Attrs: inlinehint nounwind sspstrong willreturn memory(read) uwtable
define internal i64 @RB_FL_TEST_RAW(i64 noundef %0, i64 noundef %1) #6 {
  %3 = alloca i64, align 8
  %4 = alloca i64, align 8
  store i64 %0, ptr %3, align 8, !tbaa !26
  store i64 %1, ptr %4, align 8, !tbaa !26
  %5 = load i64, ptr %3, align 8, !tbaa !26
  %6 = inttoptr i64 %5 to ptr
  %7 = getelementptr inbounds nuw %struct.RBasic, ptr %6, i32 0, i32 0
  %8 = load i64, ptr %7, align 8, !tbaa !91
  %9 = load i64, ptr %4, align 8, !tbaa !26
  %10 = and i64 %8, %9
  ret i64 %10
}

; Function Attrs: inlinehint nounwind sspstrong willreturn memory(read) uwtable
define internal i64 @RSTRING_LEN(i64 noundef %0) #6 {
  %2 = alloca i64, align 8
  store i64 %0, ptr %2, align 8, !tbaa !26
  %3 = load i64, ptr %2, align 8, !tbaa !26
  %4 = inttoptr i64 %3 to ptr
  %5 = getelementptr inbounds nuw %struct.RString, ptr %4, i32 0, i32 1
  %6 = load i64, ptr %5, align 8, !tbaa !88
  ret i64 %6
}

; Function Attrs: inlinehint nounwind sspstrong willreturn memory(read) uwtable
define internal zeroext i1 @RB_FL_ANY_RAW(i64 noundef %0, i64 noundef %1) #6 {
  %3 = alloca i64, align 8
  %4 = alloca i64, align 8
  store i64 %0, ptr %3, align 8, !tbaa !26
  store i64 %1, ptr %4, align 8, !tbaa !26
  %5 = load i64, ptr %3, align 8, !tbaa !26
  %6 = load i64, ptr %4, align 8, !tbaa !26
  %7 = call i64 @RB_FL_TEST_RAW(i64 noundef %5, i64 noundef %6) #26
  %8 = icmp ne i64 %7, 0
  ret i1 %8
}

; Function Attrs: inlinehint nounwind sspstrong willreturn memory(read, argmem: readwrite) uwtable
define internal void @rbimpl_rstring_getmem(ptr dead_on_unwind noalias writable sret(%struct.RString) align 8 %0, i64 noundef %1) #19 {
  %3 = alloca i64, align 8
  store i64 %1, ptr %3, align 8, !tbaa !26
  %4 = load i64, ptr %3, align 8, !tbaa !26
  %5 = call zeroext i1 @RB_FL_ANY_RAW(i64 noundef %4, i64 noundef 8192) #26
  br i1 %5, label %6, label %9

6:                                                ; preds = %2
  %7 = load i64, ptr %3, align 8, !tbaa !26
  %8 = inttoptr i64 %7 to ptr
  call void @llvm.memcpy.p0.p0.i64(ptr align 8 %0, ptr align 8 %8, i64 40, i1 false), !tbaa.struct !92
  br label %20

9:                                                ; preds = %2
  %10 = load i64, ptr %3, align 8, !tbaa !26
  %11 = call i64 @RSTRING_LEN(i64 noundef %10) #26
  %12 = getelementptr inbounds nuw %struct.RString, ptr %0, i32 0, i32 1
  store i64 %11, ptr %12, align 8, !tbaa !88
  %13 = load i64, ptr %3, align 8, !tbaa !26
  %14 = inttoptr i64 %13 to ptr
  %15 = getelementptr inbounds nuw %struct.RString, ptr %14, i32 0, i32 2
  %16 = getelementptr inbounds nuw %struct.anon.19, ptr %15, i32 0, i32 0
  %17 = getelementptr inbounds [1 x i8], ptr %16, i64 0, i64 0
  %18 = getelementptr inbounds nuw %struct.RString, ptr %0, i32 0, i32 2
  %19 = getelementptr inbounds nuw %struct.anon.17, ptr %18, i32 0, i32 0
  store ptr %17, ptr %19, align 8, !tbaa !50
  br label %20

20:                                               ; preds = %9, %6
  ret void
}

; Function Attrs: inlinehint nounwind sspstrong willreturn memory(read) uwtable
define internal ptr @RTYPEDDATA_TYPE(i64 noundef %0) #6 {
  %2 = alloca i64, align 8
  store i64 %0, ptr %2, align 8, !tbaa !26
  %3 = load i64, ptr %2, align 8, !tbaa !26
  %4 = inttoptr i64 %3 to ptr
  %5 = getelementptr inbounds nuw %struct.RTypedData, ptr %4, i32 0, i32 1
  %6 = load ptr, ptr %5, align 8, !tbaa !86
  ret ptr %6
}

; Function Attrs: inlinehint nounwind sspstrong uwtable
define internal ptr @RSTRING_PTR(i64 noundef %0) #4 {
  %2 = alloca i64, align 8
  %3 = alloca ptr, align 8
  %4 = alloca %struct.RString, align 8
  store i64 %0, ptr %2, align 8, !tbaa !26
  call void @llvm.lifetime.start.p0(i64 8, ptr %3) #24
  %5 = load i64, ptr %2, align 8, !tbaa !26
  call void @rbimpl_rstring_getmem(ptr dead_on_unwind writable sret(%struct.RString) align 8 %4, i64 noundef %5) #32
  %6 = getelementptr inbounds nuw %struct.RString, ptr %4, i32 0, i32 2
  %7 = getelementptr inbounds nuw %struct.anon.17, ptr %6, i32 0, i32 0
  %8 = load ptr, ptr %7, align 8, !tbaa !50
  store ptr %8, ptr %3, align 8, !tbaa !29
  %9 = load ptr, ptr %3, align 8, !tbaa !29
  call void @llvm.lifetime.end.p0(i64 8, ptr %3) #24
  ret ptr %9
}

; Function Attrs: inlinehint nounwind sspstrong willreturn memory(read) uwtable
define internal ptr @rb_rand_if(i64 noundef %0) #6 {
  %2 = alloca i64, align 8
  %3 = alloca ptr, align 8
  %4 = alloca ptr, align 8
  store i64 %0, ptr %2, align 8, !tbaa !26
  call void @llvm.lifetime.start.p0(i64 8, ptr %3) #24
  %5 = load i64, ptr %2, align 8, !tbaa !26
  %6 = call ptr @RTYPEDDATA_TYPE(i64 noundef %5) #26
  store ptr %6, ptr %3, align 8, !tbaa !93
  call void @llvm.lifetime.start.p0(i64 8, ptr %4) #24
  %7 = load ptr, ptr %3, align 8, !tbaa !93
  %8 = getelementptr inbounds nuw %struct.rb_data_type_struct, ptr %7, i32 0, i32 3
  %9 = load ptr, ptr %8, align 8, !tbaa !94
  store ptr %9, ptr %4, align 8, !tbaa !20
  %10 = load ptr, ptr %4, align 8, !tbaa !20
  call void @llvm.lifetime.end.p0(i64 8, ptr %4) #24
  call void @llvm.lifetime.end.p0(i64 8, ptr %3) #24
  ret ptr %10
}

; Function Attrs: nounwind sspstrong uwtable
define internal ptr @default_rand() #0 {
  %1 = alloca ptr, align 8
  call void @llvm.lifetime.start.p0(i64 8, ptr %1) #24
  %2 = load ptr, ptr @default_rand_key, align 8, !tbaa !7
  %3 = call ptr @rb_ractor_local_storage_ptr(ptr noundef %2)
  store ptr %3, ptr %1, align 8, !tbaa !20
  %4 = icmp eq ptr %3, null
  br i1 %4, label %5, label %9

5:                                                ; preds = %0
  %6 = call noalias nonnull ptr @ruby_xcalloc(i64 noundef 1, i64 noundef 2520) #29
  store ptr %6, ptr %1, align 8, !tbaa !20
  %7 = load ptr, ptr @default_rand_key, align 8, !tbaa !7
  %8 = load ptr, ptr %1, align 8, !tbaa !20
  call void @rb_ractor_local_storage_ptr_set(ptr noundef %7, ptr noundef %8)
  br label %9

9:                                                ; preds = %5, %0
  %10 = load ptr, ptr %1, align 8, !tbaa !20
  call void @llvm.lifetime.end.p0(i64 8, ptr %1) #24
  ret ptr %10
}

; Function Attrs: nounwind sspstrong uwtable
define internal i64 @rand_bytes(ptr noundef %0, ptr noundef %1, i64 noundef %2) #0 {
  %4 = alloca ptr, align 8
  %5 = alloca ptr, align 8
  %6 = alloca i64, align 8
  %7 = alloca i64, align 8
  %8 = alloca ptr, align 8
  store ptr %0, ptr %4, align 8, !tbaa !20
  store ptr %1, ptr %5, align 8, !tbaa !24
  store i64 %2, ptr %6, align 8, !tbaa !26
  call void @llvm.lifetime.start.p0(i64 8, ptr %7) #24
  call void @llvm.lifetime.start.p0(i64 8, ptr %8) #24
  %9 = load i64, ptr %6, align 8, !tbaa !26
  %10 = call i1 @llvm.is.constant.i64(i64 %9)
  %11 = select i1 %10, ptr @rb_str_new_static, ptr @rb_str_new
  %12 = load i64, ptr %6, align 8, !tbaa !26
  %13 = call i64 %11(ptr noundef null, i64 noundef %12)
  store i64 %13, ptr %7, align 8, !tbaa !26
  %14 = load i64, ptr %7, align 8, !tbaa !26
  %15 = call ptr @RSTRING_PTR(i64 noundef %14)
  store ptr %15, ptr %8, align 8, !tbaa !29
  %16 = load ptr, ptr %4, align 8, !tbaa !20
  %17 = getelementptr inbounds nuw %struct.rb_random_interface_t, ptr %16, i32 0, i32 6
  %18 = load ptr, ptr %17, align 8, !tbaa !54
  %19 = load ptr, ptr %5, align 8, !tbaa !24
  %20 = load ptr, ptr %8, align 8, !tbaa !29
  %21 = load i64, ptr %6, align 8, !tbaa !26
  call void %18(ptr noundef %19, ptr noundef %20, i64 noundef %21)
  %22 = load i64, ptr %7, align 8, !tbaa !26
  call void @llvm.lifetime.end.p0(i64 8, ptr %8) #24
  call void @llvm.lifetime.end.p0(i64 8, ptr %7) #24
  ret i64 %22
}

; Function Attrs: nounwind sspstrong uwtable
define internal ptr @try_rand_if(i64 noundef %0, ptr noundef %1) #0 {
  %3 = alloca ptr, align 8
  %4 = alloca i64, align 8
  %5 = alloca ptr, align 8
  store i64 %0, ptr %4, align 8, !tbaa !26
  store ptr %1, ptr %5, align 8, !tbaa !24
  %6 = load ptr, ptr %5, align 8, !tbaa !24
  %7 = call ptr @default_rand()
  %8 = getelementptr inbounds nuw %struct.rb_random_mt_t, ptr %7, i32 0, i32 0
  %9 = icmp eq ptr %6, %8
  br i1 %9, label %10, label %11

10:                                               ; preds = %2
  store ptr @random_mt_if, ptr %3, align 8
  br label %14

11:                                               ; preds = %2
  %12 = load i64, ptr %4, align 8, !tbaa !26
  %13 = call ptr @rb_rand_if(i64 noundef %12) #26
  store ptr %13, ptr %3, align 8
  br label %14

14:                                               ; preds = %11, %10
  %15 = load ptr, ptr %3, align 8
  ret ptr %15
}

; Function Attrs: nounwind sspstrong uwtable
define dso_local i64 @rb_random_bytes(i64 noundef %0, i64 noundef %1) #0 {
  %3 = alloca i64, align 8
  %4 = alloca i64, align 8
  %5 = alloca i64, align 8
  %6 = alloca ptr, align 8
  %7 = alloca i32, align 4
  store i64 %0, ptr %4, align 8, !tbaa !26
  store i64 %1, ptr %5, align 8, !tbaa !26
  call void @llvm.lifetime.start.p0(i64 8, ptr %6) #24
  %8 = load i64, ptr %4, align 8, !tbaa !26
  %9 = call ptr @try_get_rnd(i64 noundef %8)
  store ptr %9, ptr %6, align 8, !tbaa !24
  %10 = load ptr, ptr %6, align 8, !tbaa !24
  %11 = icmp ne ptr %10, null
  br i1 %11, label %16, label %12

12:                                               ; preds = %2
  %13 = load i64, ptr %4, align 8, !tbaa !26
  %14 = load i64, ptr %5, align 8, !tbaa !26
  %15 = call i64 @obj_random_bytes(i64 noundef %13, ptr noundef null, i64 noundef %14)
  store i64 %15, ptr %3, align 8
  store i32 1, ptr %7, align 4
  br label %23

16:                                               ; preds = %2
  %17 = load i64, ptr %4, align 8, !tbaa !26
  %18 = load ptr, ptr %6, align 8, !tbaa !24
  %19 = call ptr @try_rand_if(i64 noundef %17, ptr noundef %18)
  %20 = load ptr, ptr %6, align 8, !tbaa !24
  %21 = load i64, ptr %5, align 8, !tbaa !26
  %22 = call i64 @rand_bytes(ptr noundef %19, ptr noundef %20, i64 noundef %21)
  store i64 %22, ptr %3, align 8
  store i32 1, ptr %7, align 4
  br label %23

23:                                               ; preds = %16, %12
  call void @llvm.lifetime.end.p0(i64 8, ptr %6) #24
  %24 = load i64, ptr %3, align 8
  ret i64 %24
}