; Function Attrs: nounwind sspstrong uwtable
define dso_local i64 @rb_random_bytes(i64 noundef %0, i64 noundef %1) local_unnamed_addr #0 {
  %3 = tail call fastcc ptr @try_get_rnd(i64 noundef %0)
  %.not = icmp eq ptr %3, null
  br i1 %.not, label %4, label %6

4:                                                ; preds = %2
  %5 = tail call fastcc i64 @obj_random_bytes(i64 noundef %0, ptr noundef null, i64 noundef %1)
  br label %28

6:                                                ; preds = %2
  %7 = load ptr, ptr @default_rand_key, align 8, !tbaa !7
  %8 = tail call ptr @rb_ractor_local_storage_ptr(ptr noundef %7) #23
  %9 = icmp eq ptr %8, null
  br i1 %9, label %10, label %default_rand.exit.i

10:                                               ; preds = %6
  %11 = tail call noalias nonnull dereferenceable(2520) ptr @ruby_xcalloc(i64 noundef 1, i64 noundef 2520) #24
  %12 = load ptr, ptr @default_rand_key, align 8, !tbaa !7
  tail call void @rb_ractor_local_storage_ptr_set(ptr noundef %12, ptr noundef nonnull %11) #23
  br label %default_rand.exit.i

default_rand.exit.i:                              ; preds = %10, %6
  %.0.i.i = phi ptr [ %11, %10 ], [ %8, %6 ]
  %13 = icmp eq ptr %3, %.0.i.i
  br i1 %13, label %try_rand_if.exit, label %14

14:                                               ; preds = %default_rand.exit.i
  %15 = inttoptr i64 %0 to ptr
  %16 = getelementptr inbounds nuw i8, ptr %15, i64 16
  %17 = load ptr, ptr %16, align 8, !tbaa !31
  %18 = getelementptr inbounds nuw i8, ptr %17, i64 56
  %19 = load ptr, ptr %18, align 8, !tbaa !35
  br label %try_rand_if.exit

try_rand_if.exit:                                 ; preds = %default_rand.exit.i, %14
  %.0.i = phi ptr [ %19, %14 ], [ @random_mt_if, %default_rand.exit.i ]
  %20 = tail call i64 @rb_str_new(ptr noundef null, i64 noundef %1) #23, !callees !57
  %21 = inttoptr i64 %20 to ptr
  %22 = load i64, ptr %21, align 8, !tbaa !48, !noalias !58
  %23 = and i64 %22, 8192
  %.not.i.i.i = icmp eq i64 %23, 0
  %24 = getelementptr inbounds nuw i8, ptr %21, i64 24
  br i1 %.not.i.i.i, label %rand_bytes.exit, label %25

25:                                               ; preds = %try_rand_if.exit
  %.sroa.2.0.copyload.i.i = load ptr, ptr %24, align 8
  br label %rand_bytes.exit

rand_bytes.exit:                                  ; preds = %try_rand_if.exit, %25
  %.sroa.2.0.i.i = phi ptr [ %.sroa.2.0.copyload.i.i, %25 ], [ %24, %try_rand_if.exit ]
  %26 = getelementptr inbounds nuw i8, ptr %.0.i, i64 40
  %27 = load ptr, ptr %26, align 8, !tbaa !61
  tail call void %27(ptr noundef nonnull %3, ptr noundef %.sroa.2.0.i.i, i64 noundef %1) #23
  br label %28

28:                                               ; preds = %rand_bytes.exit, %4
  %.0 = phi i64 [ %20, %rand_bytes.exit ], [ %5, %4 ]
  ret i64 %.0
}